; Function Attrs: mustprogress uwtable
define hidden void @_ZN19OpenColorIO_v2_5dev27CTFReaderGradingRGBCurveElt3endEv(ptr noundef nonnull readonly align 8 captures(none) dereferenceable(136) %0) unnamed_addr #4 align 2 personality ptr @__gxx_personality_v0 {
  %2 = alloca %"class.std::shared_ptr.151", align 8
  %3 = getelementptr inbounds nuw i8, ptr %0, i64 120
  %4 = load ptr, ptr %3, align 8, !tbaa !544
  call void @llvm.lifetime.start.p0(i64 16, ptr nonnull %2) #33
  %5 = getelementptr inbounds nuw i8, ptr %0, i64 104
  %6 = load ptr, ptr %5, align 8, !tbaa !859
  store ptr %6, ptr %2, align 8, !tbaa !874
  %7 = getelementptr inbounds nuw i8, ptr %2, i64 8
  %8 = getelementptr inbounds nuw i8, ptr %0, i64 112
  %9 = load ptr, ptr %8, align 8, !tbaa !33
  store ptr %9, ptr %7, align 8, !tbaa !33
  %.not.i.i.i = icmp eq ptr %9, null
  br i1 %.not.i.i.i, label %_ZNSt10shared_ptrIKN19OpenColorIO_v2_5dev15GradingRGBCurveEEC2IS1_vEERKS_IT_E.exit, label %10

10:                                               ; preds = %1
  %11 = getelementptr inbounds nuw i8, ptr %9, i64 8
  %12 = load i8, ptr @__libc_single_threaded, align 1, !tbaa !34
  %.not.i.i.i.i = icmp eq i8 %12, 0
  br i1 %.not.i.i.i.i, label %16, label %13

13:                                               ; preds = %10
  %14 = load i32, ptr %11, align 4, !tbaa !35
  %15 = add nsw i32 %14, 1
  store i32 %15, ptr %11, align 4, !tbaa !35
  br label %_ZNSt10shared_ptrIKN19OpenColorIO_v2_5dev15GradingRGBCurveEEC2IS1_vEERKS_IT_E.exit

16:                                               ; preds = %10
  %17 = atomicrmw volatile add ptr %11, i32 1 acq_rel, align 4
  br label %_ZNSt10shared_ptrIKN19OpenColorIO_v2_5dev15GradingRGBCurveEEC2IS1_vEERKS_IT_E.exit

_ZNSt10shared_ptrIKN19OpenColorIO_v2_5dev15GradingRGBCurveEEC2IS1_vEERKS_IT_E.exit: ; preds = %1, %13, %16
  %18 = getelementptr inbounds nuw i8, ptr %4, i64 176
  %19 = load ptr, ptr %18, align 8, !tbaa !547
  %20 = load ptr, ptr %19, align 8, !tbaa !9
  %21 = getelementptr inbounds nuw i8, ptr %20, i64 32
  %22 = load ptr, ptr %21, align 8
  invoke void %22(ptr noundef nonnull align 8 dereferenceable(144) %19, ptr noundef nonnull align 8 dereferenceable(16) %2)
          to label %_ZN19OpenColorIO_v2_5dev21GradingRGBCurveOpData8setValueERKSt10shared_ptrIKNS_15GradingRGBCurveEE.exit unwind label %49

_ZN19OpenColorIO_v2_5dev21GradingRGBCurveOpData8setValueERKSt10shared_ptrIKNS_15GradingRGBCurveEE.exit: ; preds = %_ZNSt10shared_ptrIKN19OpenColorIO_v2_5dev15GradingRGBCurveEEC2IS1_vEERKS_IT_E.exit
  %23 = load ptr, ptr %7, align 8, !tbaa !33
  %.not.i.i = icmp eq ptr %23, null
  br i1 %.not.i.i, label %_ZNSt12__shared_ptrIKN19OpenColorIO_v2_5dev15GradingRGBCurveELN9__gnu_cxx12_Lock_policyE2EED2Ev.exit, label %24

24:                                               ; preds = %_ZN19OpenColorIO_v2_5dev21GradingRGBCurveOpData8setValueERKSt10shared_ptrIKNS_15GradingRGBCurveEE.exit
  %25 = getelementptr inbounds nuw i8, ptr %23, i64 8
  %26 = load atomic i64, ptr %25 acquire, align 8
  %27 = icmp eq i64 %26, 4294967297
  %28 = trunc i64 %26 to i32
  br i1 %27, label %29, label %37

29:                                               ; preds = %24
  store i32 0, ptr %25, align 8, !tbaa !26
  %30 = getelementptr inbounds nuw i8, ptr %23, i64 12
  store i32 0, ptr %30, align 4, !tbaa !31
  %31 = load ptr, ptr %23, align 8, !tbaa !9
  %32 = getelementptr inbounds nuw i8, ptr %31, i64 16
  %33 = load ptr, ptr %32, align 8
  call void %33(ptr noundef nonnull align 8 dereferenceable(16) %23) #33
  %34 = load ptr, ptr %23, align 8, !tbaa !9
  %35 = getelementptr inbounds nuw i8, ptr %34, i64 24
  %36 = load ptr, ptr %35, align 8
  call void %36(ptr noundef nonnull align 8 dereferenceable(16) %23) #33
  br label %_ZNSt12__shared_ptrIKN19OpenColorIO_v2_5dev15GradingRGBCurveELN9__gnu_cxx12_Lock_policyE2EED2Ev.exit

37:                                               ; preds = %24
  %38 = load i8, ptr @__libc_single_threaded, align 1, !tbaa !34
  %.not.i.i.i2 = icmp eq i8 %38, 0
  br i1 %.not.i.i.i2, label %41, label %39

39:                                               ; preds = %37
  %40 = add nsw i32 %28, -1
  store i32 %40, ptr %25, align 4, !tbaa !35
  br label %_ZN9__gnu_cxx27__exchange_and_add_dispatchEPii.exit.i.i.i

41:                                               ; preds = %37
  %42 = atomicrmw volatile add ptr %25, i32 -1 acq_rel, align 4
  br label %_ZN9__gnu_cxx27__exchange_and_add_dispatchEPii.exit.i.i.i

_ZN9__gnu_cxx27__exchange_and_add_dispatchEPii.exit.i.i.i: ; preds = %41, %39
  %.0.i.i.i.i = phi i32 [ %28, %39 ], [ %42, %41 ]
  %43 = icmp eq i32 %.0.i.i.i.i, 1
  br i1 %43, label %44, label %_ZNSt12__shared_ptrIKN19OpenColorIO_v2_5dev15GradingRGBCurveELN9__gnu_cxx12_Lock_policyE2EED2Ev.exit, !prof !36

44:                                               ; preds = %_ZN9__gnu_cxx27__exchange_and_add_dispatchEPii.exit.i.i.i
  call void @_ZNSt16_Sp_counted_baseILN9__gnu_cxx12_Lock_policyE2EE24_M_release_last_use_coldEv(ptr noundef nonnull align 8 dereferenceable(16) %23) #33
  br label %_ZNSt12__shared_ptrIKN19OpenColorIO_v2_5dev15GradingRGBCurveELN9__gnu_cxx12_Lock_policyE2EED2Ev.exit

_ZNSt12__shared_ptrIKN19OpenColorIO_v2_5dev15GradingRGBCurveELN9__gnu_cxx12_Lock_policyE2EED2Ev.exit: ; preds = %_ZN19OpenColorIO_v2_5dev21GradingRGBCurveOpData8setValueERKSt10shared_ptrIKNS_15GradingRGBCurveEE.exit, %29, %_ZN9__gnu_cxx27__exchange_and_add_dispatchEPii.exit.i.i.i, %44
  call void @llvm.lifetime.end.p0(i64 16, ptr nonnull %2) #33
  %45 = load ptr, ptr %3, align 8, !tbaa !544
  %46 = load ptr, ptr %45, align 8, !tbaa !9
  %47 = getelementptr inbounds nuw i8, ptr %46, i64 16
  %48 = load ptr, ptr %47, align 8
  call void %48(ptr noundef nonnull align 8 dereferenceable(200) %45)
  ret void

49:                                               ; preds = %_ZNSt10shared_ptrIKN19OpenColorIO_v2_5dev15GradingRGBCurveEEC2IS1_vEERKS_IT_E.exit
  %50 = landingpad { ptr, i32 }
          cleanup
  call void @_ZNSt12__shared_ptrIKN19OpenColorIO_v2_5dev15GradingRGBCurveELN9__gnu_cxx12_Lock_policyE2EED2Ev(ptr noundef nonnull align 8 dereferenceable(16) %2) #33
  call void @llvm.lifetime.end.p0(i64 16, ptr nonnull %2) #33
  resume { ptr, i32 } %50
}